; ModuleID = '52/3461.c'
source_filename = "52/3461.c"
target datalayout = "e-m:e-p270:32:32-p271:32:32-p272:64:64-i64:64-f80:128-n8:16:32:64-S128"
target triple = "x86_64-pc-linux-gnu"

@.str = private unnamed_addr constant [5 x i8] c"%d%d\00", align 1
@.str.1 = private unnamed_addr constant [3 x i8] c"%d\00", align 1
@.str.2 = private unnamed_addr constant [4 x i8] c" %d\00", align 1

; Function Attrs: noinline nounwind uwtable
define dso_local void @main() #0 {
  %1 = alloca i32, align 4
  %2 = alloca i32, align 4
  %3 = alloca i32, align 4
  %4 = alloca [100 x i32], align 16
  %5 = alloca [100 x i32], align 16
  %6 = call i32 (i8*, ...) @__isoc99_scanf(i8* getelementptr inbounds ([5 x i8], [5 x i8]* @.str, i64 0, i64 0), i32* %1, i32* %2)
  store i32 0, i32* %3, align 4
  br label %7

7:                                                ; preds = %17, %0
  %8 = load i32, i32* %3, align 4
  %9 = load i32, i32* %1, align 4
  %10 = sub nsw i32 %9, 1
  %11 = icmp sle i32 %8, %10
  br i1 %11, label %12, label %20

12:                                               ; preds = %7
  %13 = load i32, i32* %3, align 4
  %14 = sext i32 %13 to i64
  %15 = getelementptr inbounds [100 x i32], [100 x i32]* %4, i64 0, i64 %14
  %16 = call i32 (i8*, ...) @__isoc99_scanf(i8* getelementptr inbounds ([3 x i8], [3 x i8]* @.str.1, i64 0, i64 0), i32* %15)
  br label %17

17:                                               ; preds = %12
  %18 = load i32, i32* %3, align 4
  %19 = add nsw i32 %18, 1
  store i32 %19, i32* %3, align 4
  br label %7

20:                                               ; preds = %7
  store i32 0, i32* %3, align 4
  br label %21

21:                                               ; preds = %38, %20
  %22 = load i32, i32* %3, align 4
  %23 = load i32, i32* %1, align 4
  %24 = load i32, i32* %2, align 4
  %25 = sub nsw i32 %23, %24
  %26 = sub nsw i32 %25, 1
  %27 = icmp sle i32 %22, %26
  br i1 %27, label %28, label %41

28:                                               ; preds = %21
  %29 = load i32, i32* %3, align 4
  %30 = sext i32 %29 to i64
  %31 = getelementptr inbounds [100 x i32], [100 x i32]* %4, i64 0, i64 %30
  %32 = load i32, i32* %31, align 4
  %33 = load i32, i32* %3, align 4
  %34 = load i32, i32* %2, align 4
  %35 = add nsw i32 %33, %34
  %36 = sext i32 %35 to i64
  %37 = getelementptr inbounds [100 x i32], [100 x i32]* %5, i64 0, i64 %36
  store i32 %32, i32* %37, align 4
  br label %38

38:                                               ; preds = %28
  %39 = load i32, i32* %3, align 4
  %40 = add nsw i32 %39, 1
  store i32 %40, i32* %3, align 4
  br label %21

41:                                               ; preds = %21
  %42 = load i32, i32* %1, align 4
  %43 = load i32, i32* %2, align 4
  %44 = sub nsw i32 %42, %43
  store i32 %44, i32* %3, align 4
  br label %45

45:                                               ; preds = %62, %41
  %46 = load i32, i32* %3, align 4
  %47 = load i32, i32* %1, align 4
  %48 = sub nsw i32 %47, 1
  %49 = icmp sle i32 %46, %48
  br i1 %49, label %50, label %65

50:                                               ; preds = %45
  %51 = load i32, i32* %3, align 4
  %52 = sext i32 %51 to i64
  %53 = getelementptr inbounds [100 x i32], [100 x i32]* %4, i64 0, i64 %52
  %54 = load i32, i32* %53, align 4
  %55 = load i32, i32* %3, align 4
  %56 = load i32, i32* %1, align 4
  %57 = sub nsw i32 %55, %56
  %58 = load i32, i32* %2, align 4
  %59 = add nsw i32 %57, %58
  %60 = sext i32 %59 to i64
  %61 = getelementptr inbounds [100 x i32], [100 x i32]* %5, i64 0, i64 %60
  store i32 %54, i32* %61, align 4
  br label %62

62:                                               ; preds = %50
  %63 = load i32, i32* %3, align 4
  %64 = add nsw i32 %63, 1
  store i32 %64, i32* %3, align 4
  br label %45

65:                                               ; preds = %45
  store i32 0, i32* %3, align 4
  br label %66

66:                                               ; preds = %79, %65
  %67 = load i32, i32* %3, align 4
  %68 = load i32, i32* %1, align 4
  %69 = sub nsw i32 %68, 1
  %70 = icmp sle i32 %67, %69
  br i1 %70, label %71, label %82

71:                                               ; preds = %66
  %72 = load i32, i32* %3, align 4
  %73 = sext i32 %72 to i64
  %74 = getelementptr inbounds [100 x i32], [100 x i32]* %5, i64 0, i64 %73
  %75 = load i32, i32* %74, align 4
  %76 = load i32, i32* %3, align 4
  %77 = sext i32 %76 to i64
  %78 = getelementptr inbounds [100 x i32], [100 x i32]* %4, i64 0, i64 %77
  store i32 %75, i32* %78, align 4
  br label %79

79:                                               ; preds = %71
  %80 = load i32, i32* %3, align 4
  %81 = add nsw i32 %80, 1
  store i32 %81, i32* %3, align 4
  br label %66

82:                                               ; preds = %66
  %83 = getelementptr inbounds [100 x i32], [100 x i32]* %4, i64 0, i64 0
  %84 = load i32, i32* %83, align 16
  %85 = call i32 (i8*, ...) @printf(i8* getelementptr inbounds ([3 x i8], [3 x i8]* @.str.1, i64 0, i64 0), i32 %84)
  store i32 1, i32* %3, align 4
  br label %86

86:                                               ; preds = %97, %82
  %87 = load i32, i32* %3, align 4
  %88 = load i32, i32* %1, align 4
  %89 = sub nsw i32 %88, 1
  %90 = icmp sle i32 %87, %89
  br i1 %90, label %91, label %100

91:                                               ; preds = %86
  %92 = load i32, i32* %3, align 4
  %93 = sext i32 %92 to i64
  %94 = getelementptr inbounds [100 x i32], [100 x i32]* %4, i64 0, i64 %93
  %95 = load i32, i32* %94, align 4
  %96 = call i32 (i8*, ...) @printf(i8* getelementptr inbounds ([4 x i8], [4 x i8]* @.str.2, i64 0, i64 0), i32 %95)
  br label %97

97:                                               ; preds = %91
  %98 = load i32, i32* %3, align 4
  %99 = add nsw i32 %98, 1
  store i32 %99, i32* %3, align 4
  br label %86

100:                                              ; preds = %86
  ret void
}

declare dso_local i32 @__isoc99_scanf(i8*, ...) #1

declare dso_local i32 @printf(i8*, ...) #1


!llvm.module.flags = !{!0}
!llvm.ident = !{!1}

!0 = !{i32 1, !"wchar_size", i32 4}
!1 = !{!"clang version 10.0.0-4ubuntu1 "}
